; ModuleID = '29/1253.c'
source_filename = "29/1253.c"
target datalayout = "e-m:e-p270:32:32-p271:32:32-p272:64:64-i64:64-f80:128-n8:16:32:64-S128"
target triple = "x86_64-pc-linux-gnu"

@.str = private unnamed_addr constant [3 x i8] c"%d\00", align 1
@.str.1 = private unnamed_addr constant [7 x i8] c"%.3lf\0A\00", align 1

; Function Attrs: noinline nounwind uwtable
define dso_local i32 @main() #0 {
  %1 = alloca i32, align 4
  %2 = alloca i32, align 4
  %3 = alloca i32, align 4
  %4 = alloca i32, align 4
  %5 = alloca i32, align 4
  %6 = alloca [100 x i32], align 16
  %7 = alloca [1000 x double], align 16
  %8 = alloca double, align 8
  %9 = alloca i32, align 4
  %10 = alloca i32, align 4
  store i32 0, i32* %1, align 4
  store i32 0, i32* %2, align 4
  store double 0.000000e+00, double* %8, align 8
  %11 = call i32 (i8*, ...) @__isoc99_scanf(i8* getelementptr inbounds ([3 x i8], [3 x i8]* @.str, i64 0, i64 0), i32* %2)
  store i32 0, i32* %3, align 4
  br label %12

12:                                               ; preds = %55, %0
  %13 = load i32, i32* %3, align 4
  %14 = load i32, i32* %2, align 4
  %15 = icmp slt i32 %13, %14
  br i1 %15, label %16, label %58

16:                                               ; preds = %12
  store i32 1, i32* %9, align 4
  store i32 2, i32* %10, align 4
  store double 0.000000e+00, double* %8, align 8
  %17 = load i32, i32* %3, align 4
  %18 = sext i32 %17 to i64
  %19 = getelementptr inbounds [100 x i32], [100 x i32]* %6, i64 0, i64 %18
  %20 = call i32 (i8*, ...) @__isoc99_scanf(i8* getelementptr inbounds ([3 x i8], [3 x i8]* @.str, i64 0, i64 0), i32* %19)
  store i32 0, i32* %4, align 4
  br label %21

21:                                               ; preds = %49, %16
  %22 = load i32, i32* %4, align 4
  %23 = load i32, i32* %3, align 4
  %24 = sext i32 %23 to i64
  %25 = getelementptr inbounds [100 x i32], [100 x i32]* %6, i64 0, i64 %24
  %26 = load i32, i32* %25, align 4
  %27 = icmp slt i32 %22, %26
  br i1 %27, label %28, label %52

28:                                               ; preds = %21
  %29 = load i32, i32* %10, align 4
  %30 = sitofp i32 %29 to double
  %31 = load i32, i32* %9, align 4
  %32 = sitofp i32 %31 to double
  %33 = fmul double %32, 1.000000e+00
  %34 = fdiv double %30, %33
  %35 = load i32, i32* %4, align 4
  %36 = sext i32 %35 to i64
  %37 = getelementptr inbounds [1000 x double], [1000 x double]* %7, i64 0, i64 %36
  store double %34, double* %37, align 8
  %38 = load i32, i32* %9, align 4
  store i32 %38, i32* %5, align 4
  %39 = load i32, i32* %10, align 4
  store i32 %39, i32* %9, align 4
  %40 = load i32, i32* %5, align 4
  %41 = load i32, i32* %10, align 4
  %42 = add nsw i32 %40, %41
  store i32 %42, i32* %10, align 4
  %43 = load double, double* %8, align 8
  %44 = load i32, i32* %4, align 4
  %45 = sext i32 %44 to i64
  %46 = getelementptr inbounds [1000 x double], [1000 x double]* %7, i64 0, i64 %45
  %47 = load double, double* %46, align 8
  %48 = fadd double %43, %47
  store double %48, double* %8, align 8
  br label %49

49:                                               ; preds = %28
  %50 = load i32, i32* %4, align 4
  %51 = add nsw i32 %50, 1
  store i32 %51, i32* %4, align 4
  br label %21

52:                                               ; preds = %21
  %53 = load double, double* %8, align 8
  %54 = call i32 (i8*, ...) @printf(i8* getelementptr inbounds ([7 x i8], [7 x i8]* @.str.1, i64 0, i64 0), double %53)
  br label %55

55:                                               ; preds = %52
  %56 = load i32, i32* %3, align 4
  %57 = add nsw i32 %56, 1
  store i32 %57, i32* %3, align 4
  br label %12

58:                                               ; preds = %12
  ret i32 0
}

declare dso_local i32 @__isoc99_scanf(i8*, ...) #1

declare dso_local i32 @printf(i8*, ...) #1


!llvm.module.flags = !{!0}
!llvm.ident = !{!1}

!0 = !{i32 1, !"wchar_size", i32 4}
!1 = !{!"clang version 10.0.0-4ubuntu1 "}
